; Function Attrs: nounwind uwtable
define dso_local i64 @tidsend(ptr noundef readonly captures(none) %0) local_unnamed_addr #0 {
  %2 = alloca %struct.StringInfoData, align 8
  %3 = getelementptr inbounds nuw i8, ptr %0, i64 32
  %4 = load i64, ptr %3, align 8
  %5 = inttoptr i64 %4 to ptr
  call void @llvm.lifetime.start.p0(i64 24, ptr nonnull %2) #11
  call void @pq_begintypsend(ptr noundef nonnull %2) #11
  %.val = load i16, ptr %5, align 2
  %6 = getelementptr i8, ptr %5, i64 2
  %.val3 = load i16, ptr %6, align 2
  %7 = zext i16 %.val to i32
  %8 = shl nuw i32 %7, 16
  %9 = zext i16 %.val3 to i32
  %10 = or disjoint i32 %8, %9
  call void @enlargeStringInfo(ptr noundef nonnull %2, i32 noundef 4) #11
  call void @llvm.experimental.noalias.scope.decl(metadata !6)
  %11 = call i32 @llvm.bswap.i32(i32 %10)
  %12 = load ptr, ptr %2, align 8, !alias.scope !6
  %13 = getelementptr inbounds nuw i8, ptr %2, i64 8
  %14 = load i32, ptr %13, align 8, !alias.scope !6
  %15 = sext i32 %14 to i64
  %16 = getelementptr inbounds i8, ptr %12, i64 %15
  store i32 %11, ptr %16, align 1, !noalias !6
  %17 = add i32 %14, 4
  store i32 %17, ptr %13, align 8, !alias.scope !6
  %18 = getelementptr i8, ptr %5, i64 4
  %.val4 = load i16, ptr %18, align 2
  call void @enlargeStringInfo(ptr noundef nonnull %2, i32 noundef 2) #11
  call void @llvm.experimental.noalias.scope.decl(metadata !9)
  %19 = call i16 @llvm.bswap.i16(i16 %.val4)
  %20 = load ptr, ptr %2, align 8, !alias.scope !9
  %21 = load i32, ptr %13, align 8, !alias.scope !9
  %22 = sext i32 %21 to i64
  %23 = getelementptr inbounds i8, ptr %20, i64 %22
  store i16 %19, ptr %23, align 1, !noalias !9
  %24 = add i32 %21, 2
  store i32 %24, ptr %13, align 8, !alias.scope !9
  %25 = call ptr @pq_endtypsend(ptr noundef nonnull %2) #11
  %26 = ptrtoint ptr %25 to i64
  call void @llvm.lifetime.end.p0(i64 24, ptr nonnull %2) #11
  ret i64 %26
}